target datalayout = "e-m:e-p270:32:32-p271:32:32-p272:64:64-i64:64-i128:128-f80:128-n8:16:32:64-S128"
target triple = "x86_64-pc-linux-gnu"

%struct.VP8EncIterator = type { i32, i32, ptr, ptr, ptr, ptr, ptr, ptr, ptr, ptr, ptr, [37 x i8], ptr, i32, [9 x i32], [9 x i32], [4 x [3 x i64]], i64, i64, ptr, i32, i32, i32, i32, [2 x [2 x i8]], ptr, ptr, ptr, ptr, ptr, ptr, [88 x i8], [3359 x i8] }

; Function Attrs: nounwind uwtable
define hidden void @VP8IteratorBytesToNz(ptr noundef %0) #0 {
  %2 = alloca ptr, align 8
  %3 = alloca i32, align 4
  %4 = alloca ptr, align 8
  %5 = alloca ptr, align 8
  store ptr %0, ptr %2, align 8, !tbaa !3
  call void @llvm.lifetime.start.p0(i64 4, ptr %3) #6
  store i32 0, ptr %3, align 4, !tbaa !7
  call void @llvm.lifetime.start.p0(i64 8, ptr %4) #6
  %6 = load ptr, ptr %2, align 8, !tbaa !3
  %7 = getelementptr inbounds nuw %struct.VP8EncIterator, ptr %6, i32 0, i32 14
  %8 = getelementptr inbounds [9 x i32], ptr %7, i64 0, i64 0
  store ptr %8, ptr %4, align 8, !tbaa !87
  call void @llvm.lifetime.start.p0(i64 8, ptr %5) #6
  %9 = load ptr, ptr %2, align 8, !tbaa !3
  %10 = getelementptr inbounds nuw %struct.VP8EncIterator, ptr %9, i32 0, i32 15
  %11 = getelementptr inbounds [9 x i32], ptr %10, i64 0, i64 0
  store ptr %11, ptr %5, align 8, !tbaa !87
  %12 = load ptr, ptr %4, align 8, !tbaa !87
  %13 = getelementptr inbounds i32, ptr %12, i64 0
  %14 = load i32, ptr %13, align 4, !tbaa !7
  %15 = shl i32 %14, 12
  %16 = load ptr, ptr %4, align 8, !tbaa !87
  %17 = getelementptr inbounds i32, ptr %16, i64 1
  %18 = load i32, ptr %17, align 4, !tbaa !7
  %19 = shl i32 %18, 13
  %20 = or i32 %15, %19
  %21 = load i32, ptr %3, align 4, !tbaa !7
  %22 = or i32 %21, %20
  store i32 %22, ptr %3, align 4, !tbaa !7
  %23 = load ptr, ptr %4, align 8, !tbaa !87
  %24 = getelementptr inbounds i32, ptr %23, i64 2
  %25 = load i32, ptr %24, align 4, !tbaa !7
  %26 = shl i32 %25, 14
  %27 = load ptr, ptr %4, align 8, !tbaa !87
  %28 = getelementptr inbounds i32, ptr %27, i64 3
  %29 = load i32, ptr %28, align 4, !tbaa !7
  %30 = shl i32 %29, 15
  %31 = or i32 %26, %30
  %32 = load i32, ptr %3, align 4, !tbaa !7
  %33 = or i32 %32, %31
  store i32 %33, ptr %3, align 4, !tbaa !7
  %34 = load ptr, ptr %4, align 8, !tbaa !87
  %35 = getelementptr inbounds i32, ptr %34, i64 4
  %36 = load i32, ptr %35, align 4, !tbaa !7
  %37 = shl i32 %36, 18
  %38 = load ptr, ptr %4, align 8, !tbaa !87
  %39 = getelementptr inbounds i32, ptr %38, i64 5
  %40 = load i32, ptr %39, align 4, !tbaa !7
  %41 = shl i32 %40, 19
  %42 = or i32 %37, %41
  %43 = load i32, ptr %3, align 4, !tbaa !7
  %44 = or i32 %43, %42
  store i32 %44, ptr %3, align 4, !tbaa !7
  %45 = load ptr, ptr %4, align 8, !tbaa !87
  %46 = getelementptr inbounds i32, ptr %45, i64 6
  %47 = load i32, ptr %46, align 4, !tbaa !7
  %48 = shl i32 %47, 22
  %49 = load ptr, ptr %4, align 8, !tbaa !87
  %50 = getelementptr inbounds i32, ptr %49, i64 7
  %51 = load i32, ptr %50, align 4, !tbaa !7
  %52 = shl i32 %51, 23
  %53 = or i32 %48, %52
  %54 = load i32, ptr %3, align 4, !tbaa !7
  %55 = or i32 %54, %53
  store i32 %55, ptr %3, align 4, !tbaa !7
  %56 = load ptr, ptr %4, align 8, !tbaa !87
  %57 = getelementptr inbounds i32, ptr %56, i64 8
  %58 = load i32, ptr %57, align 4, !tbaa !7
  %59 = shl i32 %58, 24
  %60 = load i32, ptr %3, align 4, !tbaa !7
  %61 = or i32 %60, %59
  store i32 %61, ptr %3, align 4, !tbaa !7
  %62 = load ptr, ptr %5, align 8, !tbaa !87
  %63 = getelementptr inbounds i32, ptr %62, i64 0
  %64 = load i32, ptr %63, align 4, !tbaa !7
  %65 = shl i32 %64, 3
  %66 = load ptr, ptr %5, align 8, !tbaa !87
  %67 = getelementptr inbounds i32, ptr %66, i64 1
  %68 = load i32, ptr %67, align 4, !tbaa !7
  %69 = shl i32 %68, 7
  %70 = or i32 %65, %69
  %71 = load i32, ptr %3, align 4, !tbaa !7
  %72 = or i32 %71, %70
  store i32 %72, ptr %3, align 4, !tbaa !7
  %73 = load ptr, ptr %5, align 8, !tbaa !87
  %74 = getelementptr inbounds i32, ptr %73, i64 2
  %75 = load i32, ptr %74, align 4, !tbaa !7
  %76 = shl i32 %75, 11
  %77 = load i32, ptr %3, align 4, !tbaa !7
  %78 = or i32 %77, %76
  store i32 %78, ptr %3, align 4, !tbaa !7
  %79 = load ptr, ptr %5, align 8, !tbaa !87
  %80 = getelementptr inbounds i32, ptr %79, i64 4
  %81 = load i32, ptr %80, align 4, !tbaa !7
  %82 = shl i32 %81, 17
  %83 = load ptr, ptr %5, align 8, !tbaa !87
  %84 = getelementptr inbounds i32, ptr %83, i64 6
  %85 = load i32, ptr %84, align 4, !tbaa !7
  %86 = shl i32 %85, 21
  %87 = or i32 %82, %86
  %88 = load i32, ptr %3, align 4, !tbaa !7
  %89 = or i32 %88, %87
  store i32 %89, ptr %3, align 4, !tbaa !7
  %90 = load i32, ptr %3, align 4, !tbaa !7
  %91 = load ptr, ptr %2, align 8, !tbaa !3
  %92 = getelementptr inbounds nuw %struct.VP8EncIterator, ptr %91, i32 0, i32 10
  %93 = load ptr, ptr %92, align 8, !tbaa !38
  store i32 %90, ptr %93, align 4, !tbaa !7
  call void @llvm.lifetime.end.p0(i64 8, ptr %5) #6
  call void @llvm.lifetime.end.p0(i64 8, ptr %4) #6
  call void @llvm.lifetime.end.p0(i64 4, ptr %3) #6
  ret void
}