; Function Attrs: mustprogress nofree norecurse nosync nounwind willreturn memory(write, argmem: readwrite, inaccessiblemem: none) uwtable
define hidden void @VP8IteratorBytesToNz(ptr noundef readonly captures(none) %0) local_unnamed_addr #8 {
  %2 = getelementptr inbounds nuw i8, ptr %0, i64 132
  %3 = getelementptr inbounds nuw i8, ptr %0, i64 168
  %4 = load i32, ptr %2, align 4, !tbaa !47
  %5 = shl i32 %4, 12
  %6 = getelementptr inbounds nuw i8, ptr %0, i64 136
  %7 = load i32, ptr %6, align 4, !tbaa !47
  %8 = shl i32 %7, 13
  %9 = getelementptr inbounds nuw i8, ptr %0, i64 140
  %10 = load i32, ptr %9, align 4, !tbaa !47
  %11 = shl i32 %10, 14
  %12 = getelementptr inbounds nuw i8, ptr %0, i64 144
  %13 = load i32, ptr %12, align 4, !tbaa !47
  %14 = shl i32 %13, 15
  %15 = getelementptr inbounds nuw i8, ptr %0, i64 148
  %16 = load i32, ptr %15, align 4, !tbaa !47
  %17 = shl i32 %16, 18
  %18 = getelementptr inbounds nuw i8, ptr %0, i64 152
  %19 = load i32, ptr %18, align 4, !tbaa !47
  %20 = shl i32 %19, 19
  %21 = getelementptr inbounds nuw i8, ptr %0, i64 156
  %22 = load i32, ptr %21, align 4, !tbaa !47
  %23 = shl i32 %22, 22
  %24 = getelementptr inbounds nuw i8, ptr %0, i64 160
  %25 = load i32, ptr %24, align 4, !tbaa !47
  %26 = shl i32 %25, 23
  %27 = getelementptr inbounds nuw i8, ptr %0, i64 164
  %28 = load i32, ptr %27, align 4, !tbaa !47
  %29 = shl i32 %28, 24
  %30 = load i32, ptr %3, align 4, !tbaa !47
  %31 = shl i32 %30, 3
  %32 = getelementptr inbounds nuw i8, ptr %0, i64 172
  %33 = load i32, ptr %32, align 4, !tbaa !47
  %34 = shl i32 %33, 7
  %35 = getelementptr inbounds nuw i8, ptr %0, i64 176
  %36 = load i32, ptr %35, align 4, !tbaa !47
  %37 = shl i32 %36, 11
  %38 = getelementptr inbounds nuw i8, ptr %0, i64 184
  %39 = load i32, ptr %38, align 4, !tbaa !47
  %40 = shl i32 %39, 17
  %41 = getelementptr inbounds nuw i8, ptr %0, i64 192
  %42 = load i32, ptr %41, align 4, !tbaa !47
  %43 = shl i32 %42, 21
  %44 = or i32 %8, %5
  %45 = or i32 %44, %11
  %46 = or i32 %45, %14
  %47 = or i32 %46, %17
  %48 = or i32 %47, %20
  %49 = or i32 %48, %23
  %50 = or i32 %49, %26
  %51 = or i32 %50, %29
  %52 = or i32 %51, %31
  %53 = or i32 %52, %34
  %54 = or i32 %53, %37
  %55 = or i32 %54, %40
  %56 = or i32 %55, %43
  %57 = getelementptr inbounds nuw i8, ptr %0, i64 72
  %58 = load ptr, ptr %57, align 8, !tbaa !35
  store i32 %56, ptr %58, align 4, !tbaa !47
  ret void
}